target datalayout = "e-m:e-p270:32:32-p271:32:32-p272:64:64-i64:64-i128:128-f80:128-n8:16:32:64-S128"
target triple = "x86_64-pc-linux-gnu"

@proto_pn_io_rtc1 = internal global i32 0, align 4
@init_pn_io_rtc1.ett = internal global [4 x ptr] [ptr @ett_pn_io_rtc, ptr @ett_pn_io_ioxs, ptr @ett_pn_io_io_data_object, ptr @ett_pn_pa_profile_status], align 16

; Function Attrs: null_pointer_is_valid sspstrong uwtable
define hidden void @init_pn_io_rtc1(i32 noundef %0) #0 {
  %2 = alloca i32, align 4
  %3 = alloca ptr, align 8
  store i32 %0, ptr %2, align 4
  call void @llvm.lifetime.start.p0(i64 8, ptr %3) #5
  %4 = load i32, ptr %2, align 4
  store i32 %4, ptr @proto_pn_io_rtc1, align 4
  %5 = load i32, ptr %2, align 4
  call void @proto_register_field_array(i32 noundef %5, ptr noundef @init_pn_io_rtc1.hf, i32 noundef 52)
  call void @proto_register_subtree_array(ptr noundef @init_pn_io_rtc1.ett, i32 noundef 4)
  %6 = load i32, ptr @proto_pn_io_rtc1, align 4
  %7 = call ptr @expert_register_protocol(i32 noundef %6)
  store ptr %7, ptr %3, align 8
  %8 = load ptr, ptr %3, align 8
  call void @expert_register_field_array(ptr noundef %8, ptr noundef @init_pn_io_rtc1.ei, i32 noundef 1)
  call void @llvm.lifetime.end.p0(i64 8, ptr %3) #5
  ret void
}