; Function Attrs: null_pointer_is_valid sspstrong uwtable
define hidden void @init_pn_io_rtc1(i32 noundef %0) local_unnamed_addr #0 {
  store i32 %0, ptr @proto_pn_io_rtc1, align 4
  tail call void @proto_register_field_array(i32 noundef %0, ptr noundef nonnull @init_pn_io_rtc1.hf, i32 noundef 52)
  tail call void @proto_register_subtree_array(ptr noundef nonnull @init_pn_io_rtc1.ett, i32 noundef 4)
  %2 = load i32, ptr @proto_pn_io_rtc1, align 4
  %3 = tail call ptr @expert_register_protocol(i32 noundef %2)
  tail call void @expert_register_field_array(ptr noundef %3, ptr noundef nonnull @init_pn_io_rtc1.ei, i32 noundef 1)
  ret void
}